; Function Attrs: mustprogress uwtable
define hidden noundef ptr @_ZN5model12collect_depsERNS_8top_sortEP4expr(ptr noundef nonnull align 8 dereferenceable(160) %this, ptr noundef nonnull align 8 dereferenceable(128) %ts, ptr noundef %e) local_unnamed_addr #3 align 2 personality ptr @__gxx_personality_v0 {
entry:
  %visited.i = alloca %class.obj_mark, align 8
  %collector = alloca %"struct.model::deps_collector", align 8
  %call = tail call noalias noundef ptr @_ZN6memory8allocateEm(i64 noundef 24)
  %call.i.i.i.i = tail call noalias noundef ptr @_ZN6memory8allocateEm(i64 noundef 64)
  tail call void @llvm.memset.p0.i64(ptr noundef nonnull align 8 dereferenceable(64) %call.i.i.i.i, i8 0, i64 64, i1 false)
  store ptr %call.i.i.i.i, ptr %call, align 8
  %m_capacity.i.i = getelementptr inbounds i8, ptr %call, i64 8
  store i32 8, ptr %m_capacity.i.i, align 8
  %m_size.i.i = getelementptr inbounds i8, ptr %call, i64 12
  store i32 0, ptr %m_size.i.i, align 4
  %m_num_deleted.i.i = getelementptr inbounds i8, ptr %call, i64 16
  store i32 0, ptr %m_num_deleted.i.i, align 8
  store ptr %this, ptr %collector, align 8
  %ts3.i = getelementptr inbounds i8, ptr %collector, i64 8
  store ptr %ts, ptr %ts3.i, align 8
  %s4.i = getelementptr inbounds i8, ptr %collector, i64 16
  store ptr %call, ptr %s4.i, align 8
  %autil.i = getelementptr inbounds i8, ptr %collector, i64 24
  %m.i.i = getelementptr inbounds i8, ptr %this, i64 8
  %0 = load ptr, ptr %m.i.i, align 8
  call void @_ZN10array_utilC1ER11ast_manager(ptr noundef nonnull align 8 dereferenceable(16) %autil.i, ptr noundef nonnull align 8 dereferenceable(976) %0)
  %tobool.not = icmp eq ptr %e, null
  br i1 %tobool.not, label %if.end, label %if.then

if.then:                                          ; preds = %entry
  call void @llvm.lifetime.start.p0(i64 24, ptr nonnull %visited.i)
  %m_marks.i.i = getelementptr inbounds i8, ptr %visited.i, i64 8
  call void @llvm.memset.p0.i64(ptr noundef nonnull align 8 dereferenceable(16) %m_marks.i.i, i8 0, i64 16, i1 false)
  invoke void @_Z18for_each_expr_coreIN5model14deps_collectorE8obj_markI4expr10bit_vector14default_t2uintIS3_EELb0ELb0EEvRT_RT0_PS3_(ptr noundef nonnull align 8 dereferenceable(40) %collector, ptr noundef nonnull align 8 dereferenceable(24) %visited.i, ptr noundef nonnull %e)
          to label %invoke.cont.i unwind label %lpad.i

invoke.cont.i:                                    ; preds = %if.then
  %m_data.i.i.i = getelementptr inbounds i8, ptr %visited.i, i64 16
  %1 = load ptr, ptr %m_data.i.i.i, align 8
  %cmp.i.i.i.i = icmp eq ptr %1, null
  br i1 %cmp.i.i.i.i, label %_Z13for_each_exprIN5model14deps_collectorEEvRT_P4expr.exit, label %if.end.i.i.i.i

if.end.i.i.i.i:                                   ; preds = %invoke.cont.i
  invoke void @_ZN6memory10deallocateEPv(ptr noundef nonnull %1)
          to label %_Z13for_each_exprIN5model14deps_collectorEEvRT_P4expr.exit unwind label %terminate.lpad.i.i.i

terminate.lpad.i.i.i:                             ; preds = %if.end.i.i.i.i
  %2 = landingpad { ptr, i32 }
          catch ptr null
  %3 = extractvalue { ptr, i32 } %2, 0
  call void @__clang_call_terminate(ptr %3) #20
  unreachable

lpad.i:                                           ; preds = %if.then
  %4 = landingpad { ptr, i32 }
          cleanup
  call void @_ZN8obj_markI4expr10bit_vector14default_t2uintIS0_EED2Ev(ptr noundef nonnull align 8 dereferenceable(24) %visited.i) #19
  resume { ptr, i32 } %4

_Z13for_each_exprIN5model14deps_collectorEEvRT_P4expr.exit: ; preds = %invoke.cont.i, %if.end.i.i.i.i
  call void @llvm.lifetime.end.p0(i64 24, ptr nonnull %visited.i)
  br label %if.end

if.end:                                           ; preds = %_Z13for_each_exprIN5model14deps_collectorEEvRT_P4expr.exit, %entry
  ret ptr %call
}